target datalayout = "e-m:e-p270:32:32-p271:32:32-p272:64:64-i64:64-i128:128-f80:128-n8:16:32:64-S128"
target triple = "x86_64-pc-linux-gnu"

%"class.ozz::io::File" = type { %"class.ozz::io::Stream", ptr }
%"class.ozz::io::Stream" = type { ptr }

@__const._ZN3ozz2io4File4SeekEiNS0_6Stream6OriginE.origins = private unnamed_addr constant [3 x i32] [i32 1, i32 2, i32 0], align 4

; Function Attrs: mustprogress uwtable
define dso_local noundef i32 @_ZN3ozz2io4File4SeekEiNS0_6Stream6OriginE(ptr noundef nonnull align 8 dereferenceable(16) %0, i32 noundef %1, i32 noundef %2) unnamed_addr #0 align 2 {
  %4 = alloca i32, align 4
  %5 = alloca ptr, align 8
  %6 = alloca i32, align 4
  %7 = alloca i32, align 4
  %8 = alloca [3 x i32], align 4
  %9 = alloca i32, align 4
  %10 = alloca ptr, align 8
  store ptr %0, ptr %5, align 8, !tbaa !11
  store i32 %1, ptr %6, align 4, !tbaa !23
  store i32 %2, ptr %7, align 4, !tbaa !25
  %11 = load ptr, ptr %5, align 8
  call void @llvm.lifetime.start.p0(i64 12, ptr %8) #10
  call void @llvm.memcpy.p0.p0.i64(ptr align 4 %8, ptr align 4 @__const._ZN3ozz2io4File4SeekEiNS0_6Stream6OriginE.origins, i64 12, i1 false)
  %12 = load i32, ptr %7, align 4, !tbaa !25
  %13 = icmp sge i32 %12, 3
  br i1 %13, label %14, label %15

14:                                               ; preds = %3
  store i32 -1, ptr %4, align 4
  store i32 1, ptr %9, align 4
  br label %26

15:                                               ; preds = %3
  call void @llvm.lifetime.start.p0(i64 8, ptr %10) #10
  %16 = getelementptr inbounds nuw %"class.ozz::io::File", ptr %11, i32 0, i32 1
  %17 = load ptr, ptr %16, align 8, !tbaa !15
  store ptr %17, ptr %10, align 8, !tbaa !9
  %18 = load ptr, ptr %10, align 8, !tbaa !9
  %19 = load i32, ptr %6, align 4, !tbaa !23
  %20 = sext i32 %19 to i64
  %21 = load i32, ptr %7, align 4, !tbaa !25
  %22 = zext i32 %21 to i64
  %23 = getelementptr inbounds nuw [3 x i32], ptr %8, i64 0, i64 %22
  %24 = load i32, ptr %23, align 4, !tbaa !23
  %25 = call i32 @fseek(ptr noundef %18, i64 noundef %20, i32 noundef %24)
  store i32 %25, ptr %4, align 4
  store i32 1, ptr %9, align 4
  call void @llvm.lifetime.end.p0(i64 8, ptr %10) #10
  br label %26

26:                                               ; preds = %15, %14
  call void @llvm.lifetime.end.p0(i64 12, ptr %8) #10
  %27 = load i32, ptr %4, align 4
  ret i32 %27
}