; Function Attrs: mustprogress nofree nounwind uwtable
define dso_local noundef i32 @_ZN3ozz2io4File4SeekEiNS0_6Stream6OriginE(ptr noundef nonnull readonly align 8 captures(none) dereferenceable(16) %0, i32 noundef %1, i32 noundef %2) unnamed_addr #0 align 2 {
  %4 = icmp sgt i32 %2, 2
  br i1 %4, label %13, label %5

5:                                                ; preds = %3
  %6 = getelementptr inbounds nuw i8, ptr %0, i64 8
  %7 = load ptr, ptr %6, align 8, !tbaa !7
  %8 = sext i32 %1 to i64
  %9 = zext i32 %2 to i64
  %10 = getelementptr inbounds nuw [3 x i32], ptr @__const._ZN3ozz2io4File4SeekEiNS0_6Stream6OriginE.origins, i64 0, i64 %9
  %11 = load i32, ptr %10, align 4, !tbaa !12
  %12 = tail call i32 @fseek(ptr noundef %7, i64 noundef %8, i32 noundef %11)
  br label %13

13:                                               ; preds = %3, %5
  %.0 = phi i32 [ %12, %5 ], [ -1, %3 ]
  ret i32 %.0
}